cnumpy.core.multiarray
_reconstruct
p1
(cnumpy
ndarray
p2
(I0
tS'b'
tRp3
(I1
(I4
tcnumpy
dtype
p4
(S'f8'
I0
I1
tRp5
(I3
S'<'
NNNI-1
I-1
I0
tbI00
S'\xc3&\x89\tni\x00@\x97\xc0Wh\xf7x"@\x08\\6\xa11}\xbf?EW\x9e\x0e\xe3G\xed?'
tb.