cnumpy.core.multiarray
_reconstruct
p1
(cnumpy
ndarray
p2
(I0
tS'b'
tRp3
(I1
(I4
tcnumpy
dtype
p4
(S'f8'
I0
I1
tRp5
(I3
S'<'
NNNI-1
I-1
I0
tbI00
S'\xe8\xe6:,Y\xeb\xfa?\xc6$\xe85\x9dZ"@\xbb\xe1%+I\xc6p?\xac\xa5\xf6&RI\xc1?'
tb.