cnumpy.core.multiarray
_reconstruct
p1
(cnumpy
ndarray
p2
(I0
tS'b'
tRp3
(I1
(I4
tcnumpy
dtype
p4
(S'f8'
I0
I1
tRp5
(I3
S'<'
NNNI-1
I-1
I0
tbI00
S'_Z\x06\xb4\xcc}\xfe?\x8c"\xd6\xc1d\x8a$@V\xa6\\A8j\x9a?#\r\xba\xaeL\x82\xe0?'
tb.