cnumpy.core.multiarray
_reconstruct
p1
(cnumpy
ndarray
p2
(I0
tS'b'
tRp3
(I1
(I4
tcnumpy
dtype
p4
(S'f8'
I0
I1
tRp5
(I3
S'<'
NNNI-1
I-1
I0
tbI00
S'\xcf`zR.\xd5\xf6?\xc8Mz\x87\t\xf6"@0\x7f4_\x8b}w?]\xdcN\x9ex\x0c\xca?'
tb.